target datalayout = "e-m:e-p270:32:32-p271:32:32-p272:64:64-i64:64-i128:128-f80:128-n8:16:32:64-S128"
target triple = "x86_64-pc-linux-gnu"

%struct.AVFilterContext = type { ptr, ptr, ptr, ptr, ptr, i32, ptr, ptr, i32, ptr, ptr, i32, i32, ptr, ptr, ptr, ptr, i32, ptr, i32, i32 }
%struct.AFreqShift = type { ptr, double, double, i32, i32, [32 x double], [32 x float], i64, ptr, ptr, ptr, ptr, ptr }
%struct.AVChannelLayout = type { i32, i32, %union.anon.1, ptr }
%union.anon.1 = type { i64 }
%struct.AVRational = type { i32, i32 }
%struct.AVFrame = type { [8 x ptr], [8 x i32], ptr, i32, i32, i32, i32, i32, %struct.AVRational, i64, i64, %struct.AVRational, i32, ptr, i32, i32, [8 x ptr], ptr, i32, ptr, i32, i32, i32, i32, i32, i32, i32, i64, ptr, i32, ptr, ptr, i64, i64, i64, i64, ptr, %struct.AVChannelLayout, i64 }

; Function Attrs: nounwind uwtable
define internal void @ffilter_channel_dbl(ptr noundef %0, i32 noundef %1, ptr noundef %2, ptr noundef %3) #2 {
  %5 = alloca ptr, align 8
  %6 = alloca i32, align 4
  %7 = alloca ptr, align 8
  %8 = alloca ptr, align 8
  %9 = alloca ptr, align 8
  %10 = alloca i32, align 4
  %11 = alloca ptr, align 8
  %12 = alloca ptr, align 8
  %13 = alloca ptr, align 8
  %14 = alloca ptr, align 8
  %15 = alloca ptr, align 8
  %16 = alloca ptr, align 8
  %17 = alloca i32, align 4
  %18 = alloca ptr, align 8
  %19 = alloca double, align 8
  %20 = alloca double, align 8
  %21 = alloca double, align 8
  %22 = alloca i64, align 8
  %23 = alloca i32, align 4
  %24 = alloca i32, align 4
  %25 = alloca double, align 8
  %26 = alloca double, align 8
  %27 = alloca double, align 8
  %28 = alloca double, align 8
  %29 = alloca double, align 8
  %30 = alloca i32, align 4
  %31 = alloca i32, align 4
  store ptr %0, ptr %5, align 8, !tbaa !4
  store i32 %1, ptr %6, align 4, !tbaa !65
  store ptr %2, ptr %7, align 8, !tbaa !26
  store ptr %3, ptr %8, align 8, !tbaa !26
  call void @llvm.lifetime.start.p0(i64 8, ptr %9) #6
  %32 = load ptr, ptr %5, align 8, !tbaa !4
  %33 = getelementptr inbounds nuw %struct.AVFilterContext, ptr %32, i32 0, i32 9
  %34 = load ptr, ptr %33, align 8, !tbaa !9
  store ptr %34, ptr %9, align 8, !tbaa !22
  call void @llvm.lifetime.start.p0(i64 4, ptr %10) #6
  %35 = load ptr, ptr %7, align 8, !tbaa !26
  %36 = getelementptr inbounds nuw %struct.AVFrame, ptr %35, i32 0, i32 5
  %37 = load i32, ptr %36, align 8, !tbaa !43
  store i32 %37, ptr %10, align 4, !tbaa !65
  call void @llvm.lifetime.start.p0(i64 8, ptr %11) #6
  %38 = load ptr, ptr %7, align 8, !tbaa !26
  %39 = getelementptr inbounds nuw %struct.AVFrame, ptr %38, i32 0, i32 2
  %40 = load ptr, ptr %39, align 8, !tbaa !80
  %41 = load i32, ptr %6, align 4, !tbaa !65
  %42 = sext i32 %41 to i64
  %43 = getelementptr inbounds ptr, ptr %40, i64 %42
  %44 = load ptr, ptr %43, align 8, !tbaa !81
  store ptr %44, ptr %11, align 8, !tbaa !62
  call void @llvm.lifetime.start.p0(i64 8, ptr %12) #6
  %45 = load ptr, ptr %8, align 8, !tbaa !26
  %46 = getelementptr inbounds nuw %struct.AVFrame, ptr %45, i32 0, i32 2
  %47 = load ptr, ptr %46, align 8, !tbaa !80
  %48 = load i32, ptr %6, align 4, !tbaa !65
  %49 = sext i32 %48 to i64
  %50 = getelementptr inbounds ptr, ptr %47, i64 %49
  %51 = load ptr, ptr %50, align 8, !tbaa !81
  store ptr %51, ptr %12, align 8, !tbaa !62
  call void @llvm.lifetime.start.p0(i64 8, ptr %13) #6
  %52 = load ptr, ptr %9, align 8, !tbaa !22
  %53 = getelementptr inbounds nuw %struct.AFreqShift, ptr %52, i32 0, i32 8
  %54 = load ptr, ptr %53, align 8, !tbaa !53
  %55 = getelementptr inbounds nuw %struct.AVFrame, ptr %54, i32 0, i32 2
  %56 = load ptr, ptr %55, align 8, !tbaa !80
  %57 = load i32, ptr %6, align 4, !tbaa !65
  %58 = sext i32 %57 to i64
  %59 = getelementptr inbounds ptr, ptr %56, i64 %58
  %60 = load ptr, ptr %59, align 8, !tbaa !81
  store ptr %60, ptr %13, align 8, !tbaa !62
  call void @llvm.lifetime.start.p0(i64 8, ptr %14) #6
  %61 = load ptr, ptr %9, align 8, !tbaa !22
  %62 = getelementptr inbounds nuw %struct.AFreqShift, ptr %61, i32 0, i32 9
  %63 = load ptr, ptr %62, align 8, !tbaa !54
  %64 = getelementptr inbounds nuw %struct.AVFrame, ptr %63, i32 0, i32 2
  %65 = load ptr, ptr %64, align 8, !tbaa !80
  %66 = load i32, ptr %6, align 4, !tbaa !65
  %67 = sext i32 %66 to i64
  %68 = getelementptr inbounds ptr, ptr %65, i64 %67
  %69 = load ptr, ptr %68, align 8, !tbaa !81
  store ptr %69, ptr %14, align 8, !tbaa !62
  call void @llvm.lifetime.start.p0(i64 8, ptr %15) #6
  %70 = load ptr, ptr %9, align 8, !tbaa !22
  %71 = getelementptr inbounds nuw %struct.AFreqShift, ptr %70, i32 0, i32 10
  %72 = load ptr, ptr %71, align 8, !tbaa !55
  %73 = getelementptr inbounds nuw %struct.AVFrame, ptr %72, i32 0, i32 2
  %74 = load ptr, ptr %73, align 8, !tbaa !80
  %75 = load i32, ptr %6, align 4, !tbaa !65
  %76 = sext i32 %75 to i64
  %77 = getelementptr inbounds ptr, ptr %74, i64 %76
  %78 = load ptr, ptr %77, align 8, !tbaa !81
  store ptr %78, ptr %15, align 8, !tbaa !62
  call void @llvm.lifetime.start.p0(i64 8, ptr %16) #6
  %79 = load ptr, ptr %9, align 8, !tbaa !22
  %80 = getelementptr inbounds nuw %struct.AFreqShift, ptr %79, i32 0, i32 11
  %81 = load ptr, ptr %80, align 8, !tbaa !56
  %82 = getelementptr inbounds nuw %struct.AVFrame, ptr %81, i32 0, i32 2
  %83 = load ptr, ptr %82, align 8, !tbaa !80
  %84 = load i32, ptr %6, align 4, !tbaa !65
  %85 = sext i32 %84 to i64
  %86 = getelementptr inbounds ptr, ptr %83, i64 %85
  %87 = load ptr, ptr %86, align 8, !tbaa !81
  store ptr %87, ptr %16, align 8, !tbaa !62
  call void @llvm.lifetime.start.p0(i64 4, ptr %17) #6
  %88 = load ptr, ptr %9, align 8, !tbaa !22
  %89 = getelementptr inbounds nuw %struct.AFreqShift, ptr %88, i32 0, i32 3
  %90 = load i32, ptr %89, align 8, !tbaa !41
  store i32 %90, ptr %17, align 4, !tbaa !65
  call void @llvm.lifetime.start.p0(i64 8, ptr %18) #6
  %91 = load ptr, ptr %9, align 8, !tbaa !22
  %92 = getelementptr inbounds nuw %struct.AFreqShift, ptr %91, i32 0, i32 5
  %93 = getelementptr inbounds [32 x double], ptr %92, i64 0, i64 0
  store ptr %93, ptr %18, align 8, !tbaa !62
  call void @llvm.lifetime.start.p0(i64 8, ptr %19) #6
  %94 = load ptr, ptr %9, align 8, !tbaa !22
  %95 = getelementptr inbounds nuw %struct.AFreqShift, ptr %94, i32 0, i32 2
  %96 = load double, ptr %95, align 8, !tbaa !82
  store double %96, ptr %19, align 8, !tbaa !66
  call void @llvm.lifetime.start.p0(i64 8, ptr %20) #6
  %97 = load ptr, ptr %7, align 8, !tbaa !26
  %98 = getelementptr inbounds nuw %struct.AVFrame, ptr %97, i32 0, i32 15
  %99 = load i32, ptr %98, align 4, !tbaa !83
  %100 = sitofp i32 %99 to double
  %101 = fdiv nsz double 1.000000e+00, %100
  store double %101, ptr %20, align 8, !tbaa !66
  call void @llvm.lifetime.start.p0(i64 8, ptr %21) #6
  %102 = load ptr, ptr %9, align 8, !tbaa !22
  %103 = getelementptr inbounds nuw %struct.AFreqShift, ptr %102, i32 0, i32 1
  %104 = load double, ptr %103, align 8, !tbaa !84
  store double %104, ptr %21, align 8, !tbaa !66
  call void @llvm.lifetime.start.p0(i64 8, ptr %22) #6
  %105 = load ptr, ptr %9, align 8, !tbaa !22
  %106 = getelementptr inbounds nuw %struct.AFreqShift, ptr %105, i32 0, i32 7
  %107 = load i64, ptr %106, align 8, !tbaa !52
  store i64 %107, ptr %22, align 8, !tbaa !76
  call void @llvm.lifetime.start.p0(i64 4, ptr %23) #6
  store i32 0, ptr %23, align 4, !tbaa !65
  br label %108

108:                                              ; preds = %275, %4
  %109 = load i32, ptr %23, align 4, !tbaa !65
  %110 = load i32, ptr %10, align 4, !tbaa !65
  %111 = icmp slt i32 %109, %110
  br i1 %111, label %113, label %112

112:                                              ; preds = %108
  store i32 2, ptr %24, align 4
  call void @llvm.lifetime.end.p0(i64 4, ptr %23) #6
  br label %278

113:                                              ; preds = %108
  call void @llvm.lifetime.start.p0(i64 8, ptr %25) #6
  %114 = load ptr, ptr %11, align 8, !tbaa !62
  %115 = load i32, ptr %23, align 4, !tbaa !65
  %116 = sext i32 %115 to i64
  %117 = getelementptr inbounds double, ptr %114, i64 %116
  %118 = load double, ptr %117, align 8, !tbaa !66
  store double %118, ptr %25, align 8, !tbaa !66
  call void @llvm.lifetime.start.p0(i64 8, ptr %26) #6
  %119 = load ptr, ptr %11, align 8, !tbaa !62
  %120 = load i32, ptr %23, align 4, !tbaa !65
  %121 = sext i32 %120 to i64
  %122 = getelementptr inbounds double, ptr %119, i64 %121
  %123 = load double, ptr %122, align 8, !tbaa !66
  store double %123, ptr %26, align 8, !tbaa !66
  call void @llvm.lifetime.start.p0(i64 8, ptr %27) #6
  call void @llvm.lifetime.start.p0(i64 8, ptr %28) #6
  call void @llvm.lifetime.start.p0(i64 8, ptr %29) #6
  call void @llvm.lifetime.start.p0(i64 4, ptr %30) #6
  store i32 0, ptr %30, align 4, !tbaa !65
  br label %124

124:                                              ; preds = %178, %113
  %125 = load i32, ptr %30, align 4, !tbaa !65
  %126 = load i32, ptr %17, align 4, !tbaa !65
  %127 = icmp slt i32 %125, %126
  br i1 %127, label %129, label %128

128:                                              ; preds = %124
  store i32 5, ptr %24, align 4
  call void @llvm.lifetime.end.p0(i64 4, ptr %30) #6
  br label %181

129:                                              ; preds = %124
  %130 = load ptr, ptr %18, align 8, !tbaa !62
  %131 = load i32, ptr %30, align 4, !tbaa !65
  %132 = sext i32 %131 to i64
  %133 = getelementptr inbounds double, ptr %130, i64 %132
  %134 = load double, ptr %133, align 8, !tbaa !66
  %135 = load double, ptr %25, align 8, !tbaa !66
  %136 = load ptr, ptr %16, align 8, !tbaa !62
  %137 = load i32, ptr %30, align 4, !tbaa !65
  %138 = sext i32 %137 to i64
  %139 = getelementptr inbounds double, ptr %136, i64 %138
  %140 = load double, ptr %139, align 8, !tbaa !66
  %141 = fadd nsz double %135, %140
  %142 = load ptr, ptr %15, align 8, !tbaa !62
  %143 = load i32, ptr %30, align 4, !tbaa !65
  %144 = sext i32 %143 to i64
  %145 = getelementptr inbounds double, ptr %142, i64 %144
  %146 = load double, ptr %145, align 8, !tbaa !66
  %147 = fneg nsz double %146
  %148 = call nsz double @llvm.fmuladd.f64(double %134, double %141, double %147)
  store double %148, ptr %27, align 8, !tbaa !66
  %149 = load ptr, ptr %13, align 8, !tbaa !62
  %150 = load i32, ptr %30, align 4, !tbaa !65
  %151 = sext i32 %150 to i64
  %152 = getelementptr inbounds double, ptr %149, i64 %151
  %153 = load double, ptr %152, align 8, !tbaa !66
  %154 = load ptr, ptr %15, align 8, !tbaa !62
  %155 = load i32, ptr %30, align 4, !tbaa !65
  %156 = sext i32 %155 to i64
  %157 = getelementptr inbounds double, ptr %154, i64 %156
  store double %153, ptr %157, align 8, !tbaa !66
  %158 = load double, ptr %25, align 8, !tbaa !66
  %159 = load ptr, ptr %13, align 8, !tbaa !62
  %160 = load i32, ptr %30, align 4, !tbaa !65
  %161 = sext i32 %160 to i64
  %162 = getelementptr inbounds double, ptr %159, i64 %161
  store double %158, ptr %162, align 8, !tbaa !66
  %163 = load ptr, ptr %14, align 8, !tbaa !62
  %164 = load i32, ptr %30, align 4, !tbaa !65
  %165 = sext i32 %164 to i64
  %166 = getelementptr inbounds double, ptr %163, i64 %165
  %167 = load double, ptr %166, align 8, !tbaa !66
  %168 = load ptr, ptr %16, align 8, !tbaa !62
  %169 = load i32, ptr %30, align 4, !tbaa !65
  %170 = sext i32 %169 to i64
  %171 = getelementptr inbounds double, ptr %168, i64 %170
  store double %167, ptr %171, align 8, !tbaa !66
  %172 = load double, ptr %27, align 8, !tbaa !66
  %173 = load ptr, ptr %14, align 8, !tbaa !62
  %174 = load i32, ptr %30, align 4, !tbaa !65
  %175 = sext i32 %174 to i64
  %176 = getelementptr inbounds double, ptr %173, i64 %175
  store double %172, ptr %176, align 8, !tbaa !66
  %177 = load double, ptr %27, align 8, !tbaa !66
  store double %177, ptr %25, align 8, !tbaa !66
  br label %178

178:                                              ; preds = %129
  %179 = load i32, ptr %30, align 4, !tbaa !65
  %180 = add nsw i32 %179, 1
  store i32 %180, ptr %30, align 4, !tbaa !65
  br label %124, !llvm.loop !85

181:                                              ; preds = %128
  call void @llvm.lifetime.start.p0(i64 4, ptr %31) #6
  %182 = load i32, ptr %17, align 4, !tbaa !65
  store i32 %182, ptr %31, align 4, !tbaa !65
  br label %183

183:                                              ; preds = %238, %181
  %184 = load i32, ptr %31, align 4, !tbaa !65
  %185 = load i32, ptr %17, align 4, !tbaa !65
  %186 = mul nsw i32 %185, 2
  %187 = icmp slt i32 %184, %186
  br i1 %187, label %189, label %188

188:                                              ; preds = %183
  store i32 8, ptr %24, align 4
  call void @llvm.lifetime.end.p0(i64 4, ptr %31) #6
  br label %241

189:                                              ; preds = %183
  %190 = load ptr, ptr %18, align 8, !tbaa !62
  %191 = load i32, ptr %31, align 4, !tbaa !65
  %192 = sext i32 %191 to i64
  %193 = getelementptr inbounds double, ptr %190, i64 %192
  %194 = load double, ptr %193, align 8, !tbaa !66
  %195 = load double, ptr %26, align 8, !tbaa !66
  %196 = load ptr, ptr %16, align 8, !tbaa !62
  %197 = load i32, ptr %31, align 4, !tbaa !65
  %198 = sext i32 %197 to i64
  %199 = getelementptr inbounds double, ptr %196, i64 %198
  %200 = load double, ptr %199, align 8, !tbaa !66
  %201 = fadd nsz double %195, %200
  %202 = load ptr, ptr %15, align 8, !tbaa !62
  %203 = load i32, ptr %31, align 4, !tbaa !65
  %204 = sext i32 %203 to i64
  %205 = getelementptr inbounds double, ptr %202, i64 %204
  %206 = load double, ptr %205, align 8, !tbaa !66
  %207 = fneg nsz double %206
  %208 = call nsz double @llvm.fmuladd.f64(double %194, double %201, double %207)
  store double %208, ptr %28, align 8, !tbaa !66
  %209 = load ptr, ptr %13, align 8, !tbaa !62
  %210 = load i32, ptr %31, align 4, !tbaa !65
  %211 = sext i32 %210 to i64
  %212 = getelementptr inbounds double, ptr %209, i64 %211
  %213 = load double, ptr %212, align 8, !tbaa !66
  %214 = load ptr, ptr %15, align 8, !tbaa !62
  %215 = load i32, ptr %31, align 4, !tbaa !65
  %216 = sext i32 %215 to i64
  %217 = getelementptr inbounds double, ptr %214, i64 %216
  store double %213, ptr %217, align 8, !tbaa !66
  %218 = load double, ptr %26, align 8, !tbaa !66
  %219 = load ptr, ptr %13, align 8, !tbaa !62
  %220 = load i32, ptr %31, align 4, !tbaa !65
  %221 = sext i32 %220 to i64
  %222 = getelementptr inbounds double, ptr %219, i64 %221
  store double %218, ptr %222, align 8, !tbaa !66
  %223 = load ptr, ptr %14, align 8, !tbaa !62
  %224 = load i32, ptr %31, align 4, !tbaa !65
  %225 = sext i32 %224 to i64
  %226 = getelementptr inbounds double, ptr %223, i64 %225
  %227 = load double, ptr %226, align 8, !tbaa !66
  %228 = load ptr, ptr %16, align 8, !tbaa !62
  %229 = load i32, ptr %31, align 4, !tbaa !65
  %230 = sext i32 %229 to i64
  %231 = getelementptr inbounds double, ptr %228, i64 %230
  store double %227, ptr %231, align 8, !tbaa !66
  %232 = load double, ptr %28, align 8, !tbaa !66
  %233 = load ptr, ptr %14, align 8, !tbaa !62
  %234 = load i32, ptr %31, align 4, !tbaa !65
  %235 = sext i32 %234 to i64
  %236 = getelementptr inbounds double, ptr %233, i64 %235
  store double %232, ptr %236, align 8, !tbaa !66
  %237 = load double, ptr %28, align 8, !tbaa !66
  store double %237, ptr %26, align 8, !tbaa !66
  br label %238

238:                                              ; preds = %189
  %239 = load i32, ptr %31, align 4, !tbaa !65
  %240 = add nsw i32 %239, 1
  store i32 %240, ptr %31, align 4, !tbaa !65
  br label %183, !llvm.loop !86

241:                                              ; preds = %188
  %242 = load ptr, ptr %16, align 8, !tbaa !62
  %243 = load i32, ptr %17, align 4, !tbaa !65
  %244 = mul nsw i32 %243, 2
  %245 = sub nsw i32 %244, 1
  %246 = sext i32 %245 to i64
  %247 = getelementptr inbounds double, ptr %242, i64 %246
  %248 = load double, ptr %247, align 8, !tbaa !66
  store double %248, ptr %28, align 8, !tbaa !66
  %249 = load double, ptr %21, align 8, !tbaa !66
  %250 = load i64, ptr %22, align 8, !tbaa !76
  %251 = load i32, ptr %23, align 4, !tbaa !65
  %252 = sext i32 %251 to i64
  %253 = add nsw i64 %250, %252
  %254 = sitofp i64 %253 to double
  %255 = fmul nsz double %249, %254
  %256 = load double, ptr %20, align 8, !tbaa !66
  %257 = fmul nsz double %255, %256
  %258 = frem nsz double %257, 1.000000e+00
  %259 = fmul nsz double 0x401921FB54442D18, %258
  store double %259, ptr %29, align 8, !tbaa !66
  %260 = load double, ptr %27, align 8, !tbaa !66
  %261 = load double, ptr %29, align 8, !tbaa !66
  %262 = call nsz double @llvm.cos.f64(double %261)
  %263 = load double, ptr %28, align 8, !tbaa !66
  %264 = load double, ptr %29, align 8, !tbaa !66
  %265 = call nsz double @llvm.sin.f64(double %264)
  %266 = fmul nsz double %263, %265
  %267 = fneg nsz double %266
  %268 = call nsz double @llvm.fmuladd.f64(double %260, double %262, double %267)
  %269 = load double, ptr %19, align 8, !tbaa !66
  %270 = fmul nsz double %268, %269
  %271 = load ptr, ptr %12, align 8, !tbaa !62
  %272 = load i32, ptr %23, align 4, !tbaa !65
  %273 = sext i32 %272 to i64
  %274 = getelementptr inbounds double, ptr %271, i64 %273
  store double %270, ptr %274, align 8, !tbaa !66
  call void @llvm.lifetime.end.p0(i64 8, ptr %29) #6
  call void @llvm.lifetime.end.p0(i64 8, ptr %28) #6
  call void @llvm.lifetime.end.p0(i64 8, ptr %27) #6
  call void @llvm.lifetime.end.p0(i64 8, ptr %26) #6
  call void @llvm.lifetime.end.p0(i64 8, ptr %25) #6
  br label %275

275:                                              ; preds = %241
  %276 = load i32, ptr %23, align 4, !tbaa !65
  %277 = add nsw i32 %276, 1
  store i32 %277, ptr %23, align 4, !tbaa !65
  br label %108, !llvm.loop !87

278:                                              ; preds = %112
  call void @llvm.lifetime.end.p0(i64 8, ptr %22) #6
  call void @llvm.lifetime.end.p0(i64 8, ptr %21) #6
  call void @llvm.lifetime.end.p0(i64 8, ptr %20) #6
  call void @llvm.lifetime.end.p0(i64 8, ptr %19) #6
  call void @llvm.lifetime.end.p0(i64 8, ptr %18) #6
  call void @llvm.lifetime.end.p0(i64 4, ptr %17) #6
  call void @llvm.lifetime.end.p0(i64 8, ptr %16) #6
  call void @llvm.lifetime.end.p0(i64 8, ptr %15) #6
  call void @llvm.lifetime.end.p0(i64 8, ptr %14) #6
  call void @llvm.lifetime.end.p0(i64 8, ptr %13) #6
  call void @llvm.lifetime.end.p0(i64 8, ptr %12) #6
  call void @llvm.lifetime.end.p0(i64 8, ptr %11) #6
  call void @llvm.lifetime.end.p0(i64 4, ptr %10) #6
  call void @llvm.lifetime.end.p0(i64 8, ptr %9) #6
  ret void
}