; Function Attrs: nofree norecurse nosync nounwind memory(readwrite, inaccessiblemem: none) uwtable
define internal void @ffilter_channel_dbl(ptr noundef readonly captures(none) %0, i32 noundef %1, ptr noundef readonly captures(none) %2, ptr noundef readonly captures(none) %3) #8 {
  %5 = getelementptr inbounds nuw i8, ptr %0, i64 72
  %6 = load ptr, ptr %5, align 8, !tbaa !4
  %7 = getelementptr inbounds nuw i8, ptr %2, i64 112
  %8 = load i32, ptr %7, align 8, !tbaa !40
  %9 = getelementptr inbounds nuw i8, ptr %2, i64 96
  %10 = load ptr, ptr %9, align 8, !tbaa !69
  %11 = sext i32 %1 to i64
  %12 = getelementptr inbounds ptr, ptr %10, i64 %11
  %13 = load ptr, ptr %12, align 8, !tbaa !70
  %14 = getelementptr inbounds nuw i8, ptr %3, i64 96
  %15 = load ptr, ptr %14, align 8, !tbaa !69
  %16 = getelementptr inbounds ptr, ptr %15, i64 %11
  %17 = load ptr, ptr %16, align 8, !tbaa !70
  %18 = getelementptr inbounds nuw i8, ptr %6, i64 424
  %19 = load ptr, ptr %18, align 8, !tbaa !50
  %20 = getelementptr inbounds nuw i8, ptr %19, i64 96
  %21 = load ptr, ptr %20, align 8, !tbaa !69
  %22 = getelementptr inbounds ptr, ptr %21, i64 %11
  %23 = load ptr, ptr %22, align 8, !tbaa !70
  %24 = getelementptr inbounds nuw i8, ptr %6, i64 432
  %25 = load ptr, ptr %24, align 8, !tbaa !51
  %26 = getelementptr inbounds nuw i8, ptr %25, i64 96
  %27 = load ptr, ptr %26, align 8, !tbaa !69
  %28 = getelementptr inbounds ptr, ptr %27, i64 %11
  %29 = load ptr, ptr %28, align 8, !tbaa !70
  %30 = getelementptr inbounds nuw i8, ptr %6, i64 440
  %31 = load ptr, ptr %30, align 8, !tbaa !52
  %32 = getelementptr inbounds nuw i8, ptr %31, i64 96
  %33 = load ptr, ptr %32, align 8, !tbaa !69
  %34 = getelementptr inbounds ptr, ptr %33, i64 %11
  %35 = load ptr, ptr %34, align 8, !tbaa !70
  %36 = getelementptr inbounds nuw i8, ptr %6, i64 448
  %37 = load ptr, ptr %36, align 8, !tbaa !53
  %38 = getelementptr inbounds nuw i8, ptr %37, i64 96
  %39 = load ptr, ptr %38, align 8, !tbaa !69
  %40 = getelementptr inbounds ptr, ptr %39, i64 %11
  %41 = load ptr, ptr %40, align 8, !tbaa !70
  %42 = getelementptr inbounds nuw i8, ptr %6, i64 32
  %43 = getelementptr inbounds nuw i8, ptr %6, i64 16
  %44 = load double, ptr %43, align 8, !tbaa !71
  %45 = getelementptr inbounds nuw i8, ptr %2, i64 180
  %46 = load i32, ptr %45, align 4, !tbaa !72
  %47 = sitofp i32 %46 to double
  %48 = fdiv nsz double 1.000000e+00, %47
  %49 = getelementptr inbounds nuw i8, ptr %6, i64 8
  %50 = load double, ptr %49, align 8, !tbaa !73
  %51 = getelementptr inbounds nuw i8, ptr %6, i64 416
  %52 = load i64, ptr %51, align 8, !tbaa !49
  %53 = icmp sgt i32 %8, 0
  br i1 %53, label %.lr.ph106, label %._crit_edge107

.lr.ph106:                                        ; preds = %4
  %54 = getelementptr inbounds nuw i8, ptr %6, i64 24
  %55 = load i32, ptr %54, align 8, !tbaa !38
  %invariant.gep = getelementptr i8, ptr %41, i64 -8
  %56 = icmp sgt i32 %55, 0
  %57 = shl i32 %55, 1
  %58 = icmp slt i32 %55, %57
  %59 = sext i32 %57 to i64
  %gep = getelementptr double, ptr %invariant.gep, i64 %59
  %60 = sext i32 %55 to i64
  %wide.trip.count117 = zext nneg i32 %8 to i64
  %wide.trip.count = zext nneg i32 %55 to i64
  br label %61

._crit_edge107:                                   ; preds = %._crit_edge, %4
  ret void

61:                                               ; preds = %.lr.ph106, %._crit_edge
  %indvars.iv114 = phi i64 [ 0, %.lr.ph106 ], [ %indvars.iv.next115, %._crit_edge ]
  %.092103 = phi double [ undef, %.lr.ph106 ], [ %.1.lcssa, %._crit_edge ]
  %62 = getelementptr inbounds nuw double, ptr %13, i64 %indvars.iv114
  %63 = load double, ptr %62, align 8, !tbaa !63
  br i1 %56, label %.lr.ph, label %.preheader

.preheader:                                       ; preds = %.lr.ph, %61
  %.1.lcssa = phi double [ %.092103, %61 ], [ %72, %.lr.ph ]
  br i1 %58, label %.lr.ph101, label %._crit_edge

.lr.ph:                                           ; preds = %61, %.lr.ph
  %indvars.iv = phi i64 [ %indvars.iv.next, %.lr.ph ], [ 0, %61 ]
  %.09497 = phi double [ %72, %.lr.ph ], [ %63, %61 ]
  %64 = getelementptr inbounds nuw double, ptr %42, i64 %indvars.iv
  %65 = load double, ptr %64, align 8, !tbaa !63
  %66 = getelementptr inbounds nuw double, ptr %41, i64 %indvars.iv
  %67 = load double, ptr %66, align 8, !tbaa !63
  %68 = fadd nsz double %.09497, %67
  %69 = getelementptr inbounds nuw double, ptr %35, i64 %indvars.iv
  %70 = load double, ptr %69, align 8, !tbaa !63
  %71 = fneg nsz double %70
  %72 = tail call nsz double @llvm.fmuladd.f64(double %65, double %68, double %71)
  %73 = getelementptr inbounds nuw double, ptr %23, i64 %indvars.iv
  %74 = load double, ptr %73, align 8, !tbaa !63
  store double %74, ptr %69, align 8, !tbaa !63
  store double %.09497, ptr %73, align 8, !tbaa !63
  %75 = getelementptr inbounds nuw double, ptr %29, i64 %indvars.iv
  %76 = load double, ptr %75, align 8, !tbaa !63
  store double %76, ptr %66, align 8, !tbaa !63
  store double %72, ptr %75, align 8, !tbaa !63
  %indvars.iv.next = add nuw nsw i64 %indvars.iv, 1
  %exitcond.not = icmp eq i64 %indvars.iv.next, %wide.trip.count
  br i1 %exitcond.not, label %.preheader, label %.lr.ph, !llvm.loop !74

._crit_edge:                                      ; preds = %.lr.ph101, %.preheader
  %77 = load double, ptr %gep, align 8, !tbaa !63
  %78 = add nsw i64 %52, %indvars.iv114
  %79 = sitofp i64 %78 to double
  %80 = fmul nsz double %50, %79
  %81 = fmul nsz double %48, %80
  %82 = frem nsz double %81, 1.000000e+00
  %83 = fmul nsz double %82, 0x401921FB54442D18
  %84 = tail call nsz double @llvm.cos.f64(double %83)
  %85 = tail call nsz double @llvm.sin.f64(double %83)
  %86 = fneg nsz double %85
  %87 = fmul nsz double %77, %86
  %88 = tail call nsz double @llvm.fmuladd.f64(double %.1.lcssa, double %84, double %87)
  %89 = fmul nsz double %44, %88
  %90 = getelementptr inbounds nuw double, ptr %17, i64 %indvars.iv114
  store double %89, ptr %90, align 8, !tbaa !63
  %indvars.iv.next115 = add nuw nsw i64 %indvars.iv114, 1
  %exitcond118.not = icmp eq i64 %indvars.iv.next115, %wide.trip.count117
  br i1 %exitcond118.not, label %._crit_edge107, label %61, !llvm.loop !75

.lr.ph101:                                        ; preds = %.preheader, %.lr.ph101
  %indvars.iv109 = phi i64 [ %indvars.iv.next110, %.lr.ph101 ], [ %60, %.preheader ]
  %.09399 = phi double [ %99, %.lr.ph101 ], [ %63, %.preheader ]
  %91 = getelementptr inbounds double, ptr %42, i64 %indvars.iv109
  %92 = load double, ptr %91, align 8, !tbaa !63
  %93 = getelementptr inbounds double, ptr %41, i64 %indvars.iv109
  %94 = load double, ptr %93, align 8, !tbaa !63
  %95 = fadd nsz double %.09399, %94
  %96 = getelementptr inbounds double, ptr %35, i64 %indvars.iv109
  %97 = load double, ptr %96, align 8, !tbaa !63
  %98 = fneg nsz double %97
  %99 = tail call nsz double @llvm.fmuladd.f64(double %92, double %95, double %98)
  %100 = getelementptr inbounds double, ptr %23, i64 %indvars.iv109
  %101 = load double, ptr %100, align 8, !tbaa !63
  store double %101, ptr %96, align 8, !tbaa !63
  store double %.09399, ptr %100, align 8, !tbaa !63
  %102 = getelementptr inbounds double, ptr %29, i64 %indvars.iv109
  %103 = load double, ptr %102, align 8, !tbaa !63
  store double %103, ptr %93, align 8, !tbaa !63
  store double %99, ptr %102, align 8, !tbaa !63
  %indvars.iv.next110 = add nsw i64 %indvars.iv109, 1
  %exitcond113.not = icmp eq i64 %indvars.iv.next110, %59
  br i1 %exitcond113.not, label %._crit_edge, label %.lr.ph101, !llvm.loop !76
}